target datalayout = "e-m:e-p270:32:32-p271:32:32-p272:64:64-i64:64-i128:128-f80:128-n8:16:32:64-S128"
target triple = "x86_64-pc-linux-gnu"

%"class.std::map" = type { %"class.std::_Rb_tree" }
%"class.std::_Rb_tree" = type { %"struct.std::_Rb_tree<unsigned int, std::pair<const unsigned int, unsigned int>, std::_Select1st<std::pair<const unsigned int, unsigned int>>, std::less<unsigned int>>::_Rb_tree_impl" }
%"struct.std::_Rb_tree<unsigned int, std::pair<const unsigned int, unsigned int>, std::_Select1st<std::pair<const unsigned int, unsigned int>>, std::less<unsigned int>>::_Rb_tree_impl" = type { [8 x i8], %"struct.std::_Rb_tree_header" }
%"struct.std::_Rb_tree_header" = type { %"struct.std::_Rb_tree_node_base", i64 }
%"struct.std::_Rb_tree_node_base" = type { i32, ptr, ptr, ptr }
%"class.boost::detail::edge_desc_impl" = type { %"struct.boost::detail::edge_base", ptr }
%"struct.boost::detail::edge_base" = type { i64, i64 }
%"class.std::_Rb_tree.483" = type { %"struct.std::_Rb_tree<boost::detail::edge_desc_impl<boost::bidirectional_tag, unsigned long>, std::pair<const boost::detail::edge_desc_impl<boost::bidirectional_tag, unsigned long>, ue2::(anonymous namespace)::edge_join_info>, std::_Select1st<std::pair<const boost::detail::edge_desc_impl<boost::bidirectional_tag, unsigned long>, ue2::(anonymous namespace)::edge_join_info>>, std::less<boost::detail::edge_desc_impl<boost::bidirectional_tag, unsigned long>>>::_Rb_tree_impl" }
%"struct.std::_Rb_tree<boost::detail::edge_desc_impl<boost::bidirectional_tag, unsigned long>, std::pair<const boost::detail::edge_desc_impl<boost::bidirectional_tag, unsigned long>, ue2::(anonymous namespace)::edge_join_info>, std::_Select1st<std::pair<const boost::detail::edge_desc_impl<boost::bidirectional_tag, unsigned long>, ue2::(anonymous namespace)::edge_join_info>>, std::less<boost::detail::edge_desc_impl<boost::bidirectional_tag, unsigned long>>>::_Rb_tree_impl" = type { [8 x i8], %"struct.std::_Rb_tree_header" }
%"struct.std::pair.489" = type { %"class.boost::detail::edge_desc_impl", %"struct.ue2::(anonymous namespace)::edge_join_info" }
%"struct.ue2::(anonymous namespace)::edge_join_info" = type { %"class.std::map.213", %"class.std::map" }
%"class.std::map.213" = type { %"class.std::_Rb_tree.214" }
%"class.std::_Rb_tree.214" = type { %"struct.std::_Rb_tree<unsigned int, std::pair<const unsigned int, std::set<unsigned int>>, std::_Select1st<std::pair<const unsigned int, std::set<unsigned int>>>, std::less<unsigned int>>::_Rb_tree_impl" }
%"struct.std::_Rb_tree<unsigned int, std::pair<const unsigned int, std::set<unsigned int>>, std::_Select1st<std::pair<const unsigned int, std::set<unsigned int>>>, std::less<unsigned int>>::_Rb_tree_impl" = type { [8 x i8], %"struct.std::_Rb_tree_header" }
%"struct.std::_Rb_tree_node.528" = type { %"struct.std::_Rb_tree_node_base", %"struct.__gnu_cxx::__aligned_membuf.529" }
%"struct.__gnu_cxx::__aligned_membuf.529" = type { [120 x i8] }

; Function Attrs: mustprogress nounwind uwtable
define linkonce_odr dso_local noundef ptr @_ZNKSt8_Rb_treeIjSt4pairIKjSt3setIjSt4lessIjESaIjEEESt10_Select1stIS7_ES4_SaIS7_EE9_M_mbeginEv(ptr noundef nonnull align 8 dereferenceable(48) %0) #1 comdat align 2 {
  %2 = alloca ptr, align 8
  store ptr %0, ptr %2, align 8
  %3 = load ptr, ptr %2, align 8
  %4 = getelementptr inbounds nuw %"class.std::_Rb_tree.214", ptr %3, i32 0, i32 0
  %5 = getelementptr inbounds i8, ptr %4, i64 8
  %6 = getelementptr inbounds nuw %"struct.std::_Rb_tree_header", ptr %5, i32 0, i32 0
  %7 = getelementptr inbounds nuw %"struct.std::_Rb_tree_node_base", ptr %6, i32 0, i32 1
  %8 = load ptr, ptr %7, align 8
  ret ptr %8
}

; Function Attrs: mustprogress nounwind uwtable
define linkonce_odr dso_local noundef ptr @_ZNKSt8_Rb_treeIjSt4pairIKjjESt10_Select1stIS2_ESt4lessIjESaIS2_EE9_M_mbeginEv(ptr noundef nonnull align 8 dereferenceable(48) %0) #1 comdat align 2 {
  %2 = alloca ptr, align 8
  store ptr %0, ptr %2, align 8
  %3 = load ptr, ptr %2, align 8
  %4 = getelementptr inbounds nuw %"class.std::_Rb_tree", ptr %3, i32 0, i32 0
  %5 = getelementptr inbounds i8, ptr %4, i64 8
  %6 = getelementptr inbounds nuw %"struct.std::_Rb_tree_header", ptr %5, i32 0, i32 0
  %7 = getelementptr inbounds nuw %"struct.std::_Rb_tree_node_base", ptr %6, i32 0, i32 1
  %8 = load ptr, ptr %7, align 8
  ret ptr %8
}

; Function Attrs: mustprogress nounwind uwtable
define linkonce_odr dso_local void @_ZNSt15__new_allocatorISt13_Rb_tree_nodeISt4pairIKjSt3setIjSt4lessIjESaIjEEEEED2Ev(ptr noundef nonnull align 1 dereferenceable(1) %0) unnamed_addr #1 comdat align 2 {
  %2 = alloca ptr, align 8
  store ptr %0, ptr %2, align 8
  ret void
}

; Function Attrs: mustprogress nounwind uwtable
define linkonce_odr dso_local noundef ptr @_ZNSt8_Rb_treeIjSt4pairIKjSt3setIjSt4lessIjESaIjEEESt10_Select1stIS7_ES4_SaIS7_EE8_M_beginEv(ptr noundef nonnull align 8 dereferenceable(48) %0) #1 comdat align 2 {
  %2 = alloca ptr, align 8
  store ptr %0, ptr %2, align 8
  %3 = load ptr, ptr %2, align 8
  %4 = call noundef ptr @_ZNKSt8_Rb_treeIjSt4pairIKjSt3setIjSt4lessIjESaIjEEESt10_Select1stIS7_ES4_SaIS7_EE9_M_mbeginEv(ptr noundef nonnull align 8 dereferenceable(48) %3) #25
  ret ptr %4
}

; Function Attrs: mustprogress nounwind uwtable
define linkonce_odr dso_local void @_ZNSt15__new_allocatorISt13_Rb_tree_nodeISt4pairIKjjEEED2Ev(ptr noundef nonnull align 1 dereferenceable(1) %0) unnamed_addr #1 comdat align 2 {
  %2 = alloca ptr, align 8
  store ptr %0, ptr %2, align 8
  ret void
}

; Function Attrs: mustprogress nounwind uwtable
define linkonce_odr dso_local noundef ptr @_ZNSt8_Rb_treeIjSt4pairIKjjESt10_Select1stIS2_ESt4lessIjESaIS2_EE8_M_beginEv(ptr noundef nonnull align 8 dereferenceable(48) %0) #1 comdat align 2 {
  %2 = alloca ptr, align 8
  store ptr %0, ptr %2, align 8
  %3 = load ptr, ptr %2, align 8
  %4 = call noundef ptr @_ZNKSt8_Rb_treeIjSt4pairIKjjESt10_Select1stIS2_ESt4lessIjESaIS2_EE9_M_mbeginEv(ptr noundef nonnull align 8 dereferenceable(48) %3) #25
  ret ptr %4
}

; Function Attrs: mustprogress nounwind uwtable
define linkonce_odr dso_local void @_ZNSt8_Rb_treeIjSt4pairIKjSt3setIjSt4lessIjESaIjEEESt10_Select1stIS7_ES4_SaIS7_EED2Ev(ptr noundef nonnull align 8 dereferenceable(48) %0) unnamed_addr #1 comdat align 2 personality ptr @__gxx_personality_v0 {
  %2 = alloca ptr, align 8
  store ptr %0, ptr %2, align 8
  %3 = load ptr, ptr %2, align 8
  %4 = call noundef ptr @_ZNSt8_Rb_treeIjSt4pairIKjSt3setIjSt4lessIjESaIjEEESt10_Select1stIS7_ES4_SaIS7_EE8_M_beginEv(ptr noundef nonnull align 8 dereferenceable(48) %3) #25
  invoke void @_ZNSt8_Rb_treeIjSt4pairIKjSt3setIjSt4lessIjESaIjEEESt10_Select1stIS7_ES4_SaIS7_EE8_M_eraseEPSt13_Rb_tree_nodeIS7_E(ptr noundef nonnull align 8 dereferenceable(48) %3, ptr noundef %4)
          to label %5 unwind label %7

5:                                                ; preds = %1
  %6 = getelementptr inbounds nuw %"class.std::_Rb_tree.214", ptr %3, i32 0, i32 0
  call void @_ZNSt15__new_allocatorISt13_Rb_tree_nodeISt4pairIKjSt3setIjSt4lessIjESaIjEEEEED2Ev(ptr noundef nonnull align 8 dereferenceable(48) %6) #25
  ret void

7:                                                ; preds = %1
  %8 = landingpad { ptr, i32 }
          catch ptr null
  %9 = extractvalue { ptr, i32 } %8, 0
  call void @__clang_call_terminate(ptr %9) #27
  unreachable
}

; Function Attrs: mustprogress nounwind uwtable
define linkonce_odr dso_local void @_ZNSt8_Rb_treeIjSt4pairIKjjESt10_Select1stIS2_ESt4lessIjESaIS2_EED2Ev(ptr noundef nonnull align 8 dereferenceable(48) %0) unnamed_addr #1 comdat align 2 personality ptr @__gxx_personality_v0 {
  %2 = alloca ptr, align 8
  store ptr %0, ptr %2, align 8
  %3 = load ptr, ptr %2, align 8
  %4 = call noundef ptr @_ZNSt8_Rb_treeIjSt4pairIKjjESt10_Select1stIS2_ESt4lessIjESaIS2_EE8_M_beginEv(ptr noundef nonnull align 8 dereferenceable(48) %3) #25
  invoke void @_ZNSt8_Rb_treeIjSt4pairIKjjESt10_Select1stIS2_ESt4lessIjESaIS2_EE8_M_eraseEPSt13_Rb_tree_nodeIS2_E(ptr noundef nonnull align 8 dereferenceable(48) %3, ptr noundef %4)
          to label %5 unwind label %7

5:                                                ; preds = %1
  %6 = getelementptr inbounds nuw %"class.std::_Rb_tree", ptr %3, i32 0, i32 0
  call void @_ZNSt15__new_allocatorISt13_Rb_tree_nodeISt4pairIKjjEEED2Ev(ptr noundef nonnull align 8 dereferenceable(48) %6) #25
  ret void

7:                                                ; preds = %1
  %8 = landingpad { ptr, i32 }
          catch ptr null
  %9 = extractvalue { ptr, i32 } %8, 0
  call void @__clang_call_terminate(ptr %9) #27
  unreachable
}

; Function Attrs: mustprogress nounwind uwtable
define linkonce_odr dso_local void @_ZNSt3mapIjSt3setIjSt4lessIjESaIjEES2_SaISt4pairIKjS4_EEED2Ev(ptr noundef nonnull align 8 dereferenceable(48) %0) unnamed_addr #1 comdat align 2 {
  %2 = alloca ptr, align 8
  store ptr %0, ptr %2, align 8
  %3 = load ptr, ptr %2, align 8
  %4 = getelementptr inbounds nuw %"class.std::map.213", ptr %3, i32 0, i32 0
  call void @_ZNSt8_Rb_treeIjSt4pairIKjSt3setIjSt4lessIjESaIjEEESt10_Select1stIS7_ES4_SaIS7_EED2Ev(ptr noundef nonnull align 8 dereferenceable(48) %4) #25
  ret void
}

; Function Attrs: mustprogress nounwind uwtable
define linkonce_odr dso_local void @_ZNSt3mapIjjSt4lessIjESaISt4pairIKjjEEED2Ev(ptr noundef nonnull align 8 dereferenceable(48) %0) unnamed_addr #1 comdat align 2 {
  %2 = alloca ptr, align 8
  store ptr %0, ptr %2, align 8
  %3 = load ptr, ptr %2, align 8
  %4 = getelementptr inbounds nuw %"class.std::map", ptr %3, i32 0, i32 0
  call void @_ZNSt8_Rb_treeIjSt4pairIKjjESt10_Select1stIS2_ESt4lessIjESaIS2_EED2Ev(ptr noundef nonnull align 8 dereferenceable(48) %4) #25
  ret void
}

; Function Attrs: inlinehint mustprogress nounwind uwtable
define internal void @_ZN3ue212_GLOBAL__N_114edge_join_infoD2Ev(ptr noundef nonnull align 8 dereferenceable(96) %0) unnamed_addr #4 align 2 {
  %2 = alloca ptr, align 8
  store ptr %0, ptr %2, align 8
  %3 = load ptr, ptr %2, align 8
  %4 = getelementptr inbounds nuw %"struct.ue2::(anonymous namespace)::edge_join_info", ptr %3, i32 0, i32 1
  call void @_ZNSt3mapIjjSt4lessIjESaISt4pairIKjjEEED2Ev(ptr noundef nonnull align 8 dereferenceable(48) %4) #25
  %5 = getelementptr inbounds nuw %"struct.ue2::(anonymous namespace)::edge_join_info", ptr %3, i32 0, i32 0
  call void @_ZNSt3mapIjSt3setIjSt4lessIjESaIjEES2_SaISt4pairIKjS4_EEED2Ev(ptr noundef nonnull align 8 dereferenceable(48) %5) #25
  ret void
}

; Function Attrs: inlinehint mustprogress nounwind uwtable
define internal void @_ZNSt4pairIKN5boost6detail14edge_desc_implINS0_17bidirectional_tagEmEEN3ue212_GLOBAL__N_114edge_join_infoEED2Ev(ptr noundef nonnull align 8 dereferenceable(120) %0) unnamed_addr #4 align 2 {
  %2 = alloca ptr, align 8
  store ptr %0, ptr %2, align 8
  %3 = load ptr, ptr %2, align 8
  %4 = getelementptr inbounds nuw %"struct.std::pair.489", ptr %3, i32 0, i32 1
  call void @_ZN3ue212_GLOBAL__N_114edge_join_infoD2Ev(ptr noundef nonnull align 8 dereferenceable(96) %4) #25
  ret void
}

; Function Attrs: mustprogress nounwind uwtable
define internal noundef ptr @_ZN9__gnu_cxx16__aligned_membufISt4pairIKN5boost6detail14edge_desc_implINS2_17bidirectional_tagEmEEN3ue212_GLOBAL__N_114edge_join_infoEEE7_M_addrEv(ptr noundef nonnull align 8 dereferenceable(120) %0) #1 align 2 {
  %2 = alloca ptr, align 8
  store ptr %0, ptr %2, align 8
  %3 = load ptr, ptr %2, align 8
  %4 = getelementptr inbounds nuw %"struct.__gnu_cxx::__aligned_membuf.529", ptr %3, i32 0, i32 0
  ret ptr %4
}

; Function Attrs: mustprogress nounwind uwtable
define internal void @_ZNSt15__new_allocatorISt13_Rb_tree_nodeISt4pairIKN5boost6detail14edge_desc_implINS2_17bidirectional_tagEmEEN3ue212_GLOBAL__N_114edge_join_infoEEEE10deallocateEPSC_m(ptr noundef nonnull align 1 dereferenceable(1) %0, ptr noundef %1, i64 noundef %2) #1 align 2 {
  %4 = alloca ptr, align 8
  %5 = alloca ptr, align 8
  %6 = alloca i64, align 8
  store ptr %0, ptr %4, align 8
  store ptr %1, ptr %5, align 8
  store i64 %2, ptr %6, align 8
  %7 = load ptr, ptr %5, align 8
  call void @_ZdlPv(ptr noundef %7) #29
  ret void
}

; Function Attrs: mustprogress nounwind uwtable
define internal void @_ZNSt15__new_allocatorISt13_Rb_tree_nodeISt4pairIKN5boost6detail14edge_desc_implINS2_17bidirectional_tagEmEEN3ue212_GLOBAL__N_114edge_join_infoEEEE7destroyISB_EEvPT_(ptr noundef nonnull align 1 dereferenceable(1) %0, ptr noundef %1) #1 align 2 {
  %3 = alloca ptr, align 8
  %4 = alloca ptr, align 8
  store ptr %0, ptr %3, align 8
  store ptr %1, ptr %4, align 8
  %5 = load ptr, ptr %4, align 8
  call void @_ZNSt4pairIKN5boost6detail14edge_desc_implINS0_17bidirectional_tagEmEEN3ue212_GLOBAL__N_114edge_join_infoEED2Ev(ptr noundef nonnull align 8 dereferenceable(120) %5) #25
  ret void
}

; Function Attrs: mustprogress nounwind uwtable
define internal noundef ptr @_ZN9__gnu_cxx16__aligned_membufISt4pairIKN5boost6detail14edge_desc_implINS2_17bidirectional_tagEmEEN3ue212_GLOBAL__N_114edge_join_infoEEE6_M_ptrEv(ptr noundef nonnull align 8 dereferenceable(120) %0) #1 align 2 {
  %2 = alloca ptr, align 8
  store ptr %0, ptr %2, align 8
  %3 = load ptr, ptr %2, align 8
  %4 = call noundef ptr @_ZN9__gnu_cxx16__aligned_membufISt4pairIKN5boost6detail14edge_desc_implINS2_17bidirectional_tagEmEEN3ue212_GLOBAL__N_114edge_join_infoEEE7_M_addrEv(ptr noundef nonnull align 8 dereferenceable(120) %3) #25
  ret ptr %4
}

; Function Attrs: mustprogress uwtable
define internal void @_ZNSt16allocator_traitsISaISt13_Rb_tree_nodeISt4pairIKN5boost6detail14edge_desc_implINS2_17bidirectional_tagEmEEN3ue212_GLOBAL__N_114edge_join_infoEEEEE10deallocateERSD_PSC_m(ptr noundef nonnull align 1 dereferenceable(1) %0, ptr noundef %1, i64 noundef %2) #3 align 2 {
  %4 = alloca ptr, align 8
  %5 = alloca ptr, align 8
  %6 = alloca i64, align 8
  store ptr %0, ptr %4, align 8
  store ptr %1, ptr %5, align 8
  store i64 %2, ptr %6, align 8
  %7 = load ptr, ptr %4, align 8
  %8 = load ptr, ptr %5, align 8
  %9 = load i64, ptr %6, align 8
  call void @_ZNSt15__new_allocatorISt13_Rb_tree_nodeISt4pairIKN5boost6detail14edge_desc_implINS2_17bidirectional_tagEmEEN3ue212_GLOBAL__N_114edge_join_infoEEEE10deallocateEPSC_m(ptr noundef nonnull align 1 dereferenceable(1) %7, ptr noundef %8, i64 noundef %9)
  ret void
}

; Function Attrs: mustprogress nounwind uwtable
define internal void @_ZNSt16allocator_traitsISaISt13_Rb_tree_nodeISt4pairIKN5boost6detail14edge_desc_implINS2_17bidirectional_tagEmEEN3ue212_GLOBAL__N_114edge_join_infoEEEEE7destroyISB_EEvRSD_PT_(ptr noundef nonnull align 1 dereferenceable(1) %0, ptr noundef %1) #1 align 2 {
  %3 = alloca ptr, align 8
  %4 = alloca ptr, align 8
  store ptr %0, ptr %3, align 8
  store ptr %1, ptr %4, align 8
  %5 = load ptr, ptr %3, align 8
  %6 = load ptr, ptr %4, align 8
  call void @_ZNSt15__new_allocatorISt13_Rb_tree_nodeISt4pairIKN5boost6detail14edge_desc_implINS2_17bidirectional_tagEmEEN3ue212_GLOBAL__N_114edge_join_infoEEEE7destroyISB_EEvPT_(ptr noundef nonnull align 1 dereferenceable(1) %5, ptr noundef %6) #25
  ret void
}

; Function Attrs: mustprogress nounwind uwtable
define internal noundef ptr @_ZNSt13_Rb_tree_nodeISt4pairIKN5boost6detail14edge_desc_implINS1_17bidirectional_tagEmEEN3ue212_GLOBAL__N_114edge_join_infoEEE9_M_valptrEv(ptr noundef nonnull align 8 dereferenceable(152) %0) #1 align 2 {
  %2 = alloca ptr, align 8
  store ptr %0, ptr %2, align 8
  %3 = load ptr, ptr %2, align 8
  %4 = getelementptr inbounds nuw %"struct.std::_Rb_tree_node.528", ptr %3, i32 0, i32 1
  %5 = call noundef ptr @_ZN9__gnu_cxx16__aligned_membufISt4pairIKN5boost6detail14edge_desc_implINS2_17bidirectional_tagEmEEN3ue212_GLOBAL__N_114edge_join_infoEEE6_M_ptrEv(ptr noundef nonnull align 8 dereferenceable(120) %4) #25
  ret ptr %5
}

; Function Attrs: mustprogress nounwind uwtable
define internal noundef nonnull align 1 dereferenceable(1) ptr @_ZNSt8_Rb_treeIN5boost6detail14edge_desc_implINS0_17bidirectional_tagEmEESt4pairIKS4_N3ue212_GLOBAL__N_114edge_join_infoEESt10_Select1stISA_ESt4lessIS4_ESaISA_EE21_M_get_Node_allocatorEv(ptr noundef nonnull align 8 dereferenceable(48) %0) #1 align 2 {
  %2 = alloca ptr, align 8
  store ptr %0, ptr %2, align 8
  %3 = load ptr, ptr %2, align 8
  %4 = getelementptr inbounds nuw %"class.std::_Rb_tree.483", ptr %3, i32 0, i32 0
  ret ptr %4
}

; Function Attrs: mustprogress nounwind uwtable
define internal void @_ZNSt8_Rb_treeIN5boost6detail14edge_desc_implINS0_17bidirectional_tagEmEESt4pairIKS4_N3ue212_GLOBAL__N_114edge_join_infoEESt10_Select1stISA_ESt4lessIS4_ESaISA_EE11_M_put_nodeEPSt13_Rb_tree_nodeISA_E(ptr noundef nonnull align 8 dereferenceable(48) %0, ptr noundef %1) #1 align 2 personality ptr @__gxx_personality_v0 {
  %3 = alloca ptr, align 8
  %4 = alloca ptr, align 8
  store ptr %0, ptr %3, align 8
  store ptr %1, ptr %4, align 8
  %5 = load ptr, ptr %3, align 8
  %6 = call noundef nonnull align 1 dereferenceable(1) ptr @_ZNSt8_Rb_treeIN5boost6detail14edge_desc_implINS0_17bidirectional_tagEmEESt4pairIKS4_N3ue212_GLOBAL__N_114edge_join_infoEESt10_Select1stISA_ESt4lessIS4_ESaISA_EE21_M_get_Node_allocatorEv(ptr noundef nonnull align 8 dereferenceable(48) %5) #25
  %7 = load ptr, ptr %4, align 8
  invoke void @_ZNSt16allocator_traitsISaISt13_Rb_tree_nodeISt4pairIKN5boost6detail14edge_desc_implINS2_17bidirectional_tagEmEEN3ue212_GLOBAL__N_114edge_join_infoEEEEE10deallocateERSD_PSC_m(ptr noundef nonnull align 1 dereferenceable(1) %6, ptr noundef %7, i64 noundef 1)
          to label %8 unwind label %9

8:                                                ; preds = %2
  ret void

9:                                                ; preds = %2
  %10 = landingpad { ptr, i32 }
          catch ptr null
  %11 = extractvalue { ptr, i32 } %10, 0
  call void @__clang_call_terminate(ptr %11) #27
  unreachable
}

; Function Attrs: mustprogress nounwind uwtable
define internal void @_ZNSt8_Rb_treeIN5boost6detail14edge_desc_implINS0_17bidirectional_tagEmEESt4pairIKS4_N3ue212_GLOBAL__N_114edge_join_infoEESt10_Select1stISA_ESt4lessIS4_ESaISA_EE15_M_destroy_nodeEPSt13_Rb_tree_nodeISA_E(ptr noundef nonnull align 8 dereferenceable(48) %0, ptr noundef %1) #1 align 2 {
  %3 = alloca ptr, align 8
  %4 = alloca ptr, align 8
  store ptr %0, ptr %3, align 8
  store ptr %1, ptr %4, align 8
  %5 = load ptr, ptr %3, align 8
  %6 = call noundef nonnull align 1 dereferenceable(1) ptr @_ZNSt8_Rb_treeIN5boost6detail14edge_desc_implINS0_17bidirectional_tagEmEESt4pairIKS4_N3ue212_GLOBAL__N_114edge_join_infoEESt10_Select1stISA_ESt4lessIS4_ESaISA_EE21_M_get_Node_allocatorEv(ptr noundef nonnull align 8 dereferenceable(48) %5) #25
  %7 = load ptr, ptr %4, align 8
  %8 = call noundef ptr @_ZNSt13_Rb_tree_nodeISt4pairIKN5boost6detail14edge_desc_implINS1_17bidirectional_tagEmEEN3ue212_GLOBAL__N_114edge_join_infoEEE9_M_valptrEv(ptr noundef nonnull align 8 dereferenceable(152) %7)
  call void @_ZNSt16allocator_traitsISaISt13_Rb_tree_nodeISt4pairIKN5boost6detail14edge_desc_implINS2_17bidirectional_tagEmEEN3ue212_GLOBAL__N_114edge_join_infoEEEEE7destroyISB_EEvRSD_PT_(ptr noundef nonnull align 1 dereferenceable(1) %6, ptr noundef %8) #25
  ret void
}

; Function Attrs: mustprogress nounwind uwtable
define internal void @_ZNSt8_Rb_treeIN5boost6detail14edge_desc_implINS0_17bidirectional_tagEmEESt4pairIKS4_N3ue212_GLOBAL__N_114edge_join_infoEESt10_Select1stISA_ESt4lessIS4_ESaISA_EE12_M_drop_nodeEPSt13_Rb_tree_nodeISA_E(ptr noundef nonnull align 8 dereferenceable(48) %0, ptr noundef %1) #1 align 2 {
  %3 = alloca ptr, align 8
  %4 = alloca ptr, align 8
  store ptr %0, ptr %3, align 8
  store ptr %1, ptr %4, align 8
  %5 = load ptr, ptr %3, align 8
  %6 = load ptr, ptr %4, align 8
  call void @_ZNSt8_Rb_treeIN5boost6detail14edge_desc_implINS0_17bidirectional_tagEmEESt4pairIKS4_N3ue212_GLOBAL__N_114edge_join_infoEESt10_Select1stISA_ESt4lessIS4_ESaISA_EE15_M_destroy_nodeEPSt13_Rb_tree_nodeISA_E(ptr noundef nonnull align 8 dereferenceable(48) %5, ptr noundef %6) #25
  %7 = load ptr, ptr %4, align 8
  call void @_ZNSt8_Rb_treeIN5boost6detail14edge_desc_implINS0_17bidirectional_tagEmEESt4pairIKS4_N3ue212_GLOBAL__N_114edge_join_infoEESt10_Select1stISA_ESt4lessIS4_ESaISA_EE11_M_put_nodeEPSt13_Rb_tree_nodeISA_E(ptr noundef nonnull align 8 dereferenceable(48) %5, ptr noundef %7) #25
  ret void
}

; Function Attrs: mustprogress nounwind uwtable
define internal noundef ptr @_ZNSt8_Rb_treeIN5boost6detail14edge_desc_implINS0_17bidirectional_tagEmEESt4pairIKS4_N3ue212_GLOBAL__N_114edge_join_infoEESt10_Select1stISA_ESt4lessIS4_ESaISA_EE7_S_leftEPSt18_Rb_tree_node_base(ptr noundef %0) #1 align 2 {
  %2 = alloca ptr, align 8
  store ptr %0, ptr %2, align 8
  %3 = load ptr, ptr %2, align 8
  %4 = getelementptr inbounds nuw %"struct.std::_Rb_tree_node_base", ptr %3, i32 0, i32 2
  %5 = load ptr, ptr %4, align 8
  ret ptr %5
}

; Function Attrs: mustprogress nounwind uwtable
define internal noundef ptr @_ZNSt8_Rb_treeIN5boost6detail14edge_desc_implINS0_17bidirectional_tagEmEESt4pairIKS4_N3ue212_GLOBAL__N_114edge_join_infoEESt10_Select1stISA_ESt4lessIS4_ESaISA_EE8_S_rightEPSt18_Rb_tree_node_base(ptr noundef %0) #1 align 2 {
  %2 = alloca ptr, align 8
  store ptr %0, ptr %2, align 8
  %3 = load ptr, ptr %2, align 8
  %4 = getelementptr inbounds nuw %"struct.std::_Rb_tree_node_base", ptr %3, i32 0, i32 3
  %5 = load ptr, ptr %4, align 8
  ret ptr %5
}

; Function Attrs: mustprogress uwtable
define internal void @_ZNSt8_Rb_treeIN5boost6detail14edge_desc_implINS0_17bidirectional_tagEmEESt4pairIKS4_N3ue212_GLOBAL__N_114edge_join_infoEESt10_Select1stISA_ESt4lessIS4_ESaISA_EE8_M_eraseEPSt13_Rb_tree_nodeISA_E(ptr noundef nonnull align 8 dereferenceable(48) %0, ptr noundef %1) #3 align 2 {
  %3 = alloca ptr, align 8
  %4 = alloca ptr, align 8
  %5 = alloca ptr, align 8
  store ptr %0, ptr %3, align 8
  store ptr %1, ptr %4, align 8
  %6 = load ptr, ptr %3, align 8
  br label %7

7:                                                ; preds = %10, %2
  %8 = load ptr, ptr %4, align 8
  %9 = icmp ne ptr %8, null
  br i1 %9, label %10, label %17

10:                                               ; preds = %7
  %11 = load ptr, ptr %4, align 8
  %12 = call noundef ptr @_ZNSt8_Rb_treeIN5boost6detail14edge_desc_implINS0_17bidirectional_tagEmEESt4pairIKS4_N3ue212_GLOBAL__N_114edge_join_infoEESt10_Select1stISA_ESt4lessIS4_ESaISA_EE8_S_rightEPSt18_Rb_tree_node_base(ptr noundef %11) #25
  call void @_ZNSt8_Rb_treeIN5boost6detail14edge_desc_implINS0_17bidirectional_tagEmEESt4pairIKS4_N3ue212_GLOBAL__N_114edge_join_infoEESt10_Select1stISA_ESt4lessIS4_ESaISA_EE8_M_eraseEPSt13_Rb_tree_nodeISA_E(ptr noundef nonnull align 8 dereferenceable(48) %6, ptr noundef %12)
  call void @llvm.lifetime.start.p0(i64 8, ptr %5) #25
  %13 = load ptr, ptr %4, align 8
  %14 = call noundef ptr @_ZNSt8_Rb_treeIN5boost6detail14edge_desc_implINS0_17bidirectional_tagEmEESt4pairIKS4_N3ue212_GLOBAL__N_114edge_join_infoEESt10_Select1stISA_ESt4lessIS4_ESaISA_EE7_S_leftEPSt18_Rb_tree_node_base(ptr noundef %13) #25
  store ptr %14, ptr %5, align 8
  %15 = load ptr, ptr %4, align 8
  call void @_ZNSt8_Rb_treeIN5boost6detail14edge_desc_implINS0_17bidirectional_tagEmEESt4pairIKS4_N3ue212_GLOBAL__N_114edge_join_infoEESt10_Select1stISA_ESt4lessIS4_ESaISA_EE12_M_drop_nodeEPSt13_Rb_tree_nodeISA_E(ptr noundef nonnull align 8 dereferenceable(48) %6, ptr noundef %15) #25
  %16 = load ptr, ptr %5, align 8
  store ptr %16, ptr %4, align 8
  call void @llvm.lifetime.end.p0(i64 8, ptr %5) #25
  br label %7, !llvm.loop !87

17:                                               ; preds = %7
  ret void
}