; Function Attrs: mustprogress nounwind uwtable
define internal fastcc void @_ZNSt8_Rb_treeIN5boost6detail14edge_desc_implINS0_17bidirectional_tagEmEESt4pairIKS4_N3ue212_GLOBAL__N_114edge_join_infoEESt10_Select1stISA_ESt4lessIS4_ESaISA_EE8_M_eraseEPSt13_Rb_tree_nodeISA_E(ptr noundef %0) unnamed_addr #8 align 2 personality ptr @__gxx_personality_v0 {
  %.not1 = icmp eq ptr %0, null
  br i1 %.not1, label %._crit_edge, label %.lr.ph

.lr.ph:                                           ; preds = %1, %_ZNSt8_Rb_treeIN5boost6detail14edge_desc_implINS0_17bidirectional_tagEmEESt4pairIKS4_N3ue212_GLOBAL__N_114edge_join_infoEESt10_Select1stISA_ESt4lessIS4_ESaISA_EE12_M_drop_nodeEPSt13_Rb_tree_nodeISA_E.exit
  %.02 = phi ptr [ %.0.val, %_ZNSt8_Rb_treeIN5boost6detail14edge_desc_implINS0_17bidirectional_tagEmEESt4pairIKS4_N3ue212_GLOBAL__N_114edge_join_infoEESt10_Select1stISA_ESt4lessIS4_ESaISA_EE12_M_drop_nodeEPSt13_Rb_tree_nodeISA_E.exit ], [ %0, %1 ]
  %2 = getelementptr i8, ptr %.02, i64 24
  %.0.val6 = load ptr, ptr %2, align 8
  tail call fastcc void @_ZNSt8_Rb_treeIN5boost6detail14edge_desc_implINS0_17bidirectional_tagEmEESt4pairIKS4_N3ue212_GLOBAL__N_114edge_join_infoEESt10_Select1stISA_ESt4lessIS4_ESaISA_EE8_M_eraseEPSt13_Rb_tree_nodeISA_E(ptr noundef %.0.val6)
  %3 = getelementptr i8, ptr %.02, i64 16
  %.0.val = load ptr, ptr %3, align 8
  %4 = getelementptr inbounds nuw i8, ptr %.02, i64 104
  %5 = getelementptr inbounds nuw i8, ptr %.02, i64 120
  %6 = load ptr, ptr %5, align 8
  invoke void @_ZNSt8_Rb_treeIjSt4pairIKjjESt10_Select1stIS2_ESt4lessIjESaIS2_EE8_M_eraseEPSt13_Rb_tree_nodeIS2_E(ptr noundef nonnull align 8 dereferenceable(48) %4, ptr noundef %6)
          to label %_ZNSt3mapIjjSt4lessIjESaISt4pairIKjjEEED2Ev.exit.i.i.i.i.i.i unwind label %7

7:                                                ; preds = %.lr.ph
  %8 = landingpad { ptr, i32 }
          catch ptr null
  %9 = extractvalue { ptr, i32 } %8, 0
  tail call void @__clang_call_terminate(ptr %9) #32
  unreachable

_ZNSt3mapIjjSt4lessIjESaISt4pairIKjjEEED2Ev.exit.i.i.i.i.i.i: ; preds = %.lr.ph
  %10 = getelementptr inbounds nuw i8, ptr %.02, i64 56
  %11 = getelementptr inbounds nuw i8, ptr %.02, i64 72
  %12 = load ptr, ptr %11, align 8
  invoke void @_ZNSt8_Rb_treeIjSt4pairIKjSt3setIjSt4lessIjESaIjEEESt10_Select1stIS7_ES4_SaIS7_EE8_M_eraseEPSt13_Rb_tree_nodeIS7_E(ptr noundef nonnull align 8 dereferenceable(96) %10, ptr noundef %12)
          to label %_ZNSt8_Rb_treeIN5boost6detail14edge_desc_implINS0_17bidirectional_tagEmEESt4pairIKS4_N3ue212_GLOBAL__N_114edge_join_infoEESt10_Select1stISA_ESt4lessIS4_ESaISA_EE12_M_drop_nodeEPSt13_Rb_tree_nodeISA_E.exit unwind label %13

13:                                               ; preds = %_ZNSt3mapIjjSt4lessIjESaISt4pairIKjjEEED2Ev.exit.i.i.i.i.i.i
  %14 = landingpad { ptr, i32 }
          catch ptr null
  %15 = extractvalue { ptr, i32 } %14, 0
  tail call void @__clang_call_terminate(ptr %15) #32
  unreachable

_ZNSt8_Rb_treeIN5boost6detail14edge_desc_implINS0_17bidirectional_tagEmEESt4pairIKS4_N3ue212_GLOBAL__N_114edge_join_infoEESt10_Select1stISA_ESt4lessIS4_ESaISA_EE12_M_drop_nodeEPSt13_Rb_tree_nodeISA_E.exit: ; preds = %_ZNSt3mapIjjSt4lessIjESaISt4pairIKjjEEED2Ev.exit.i.i.i.i.i.i
  tail call void @_ZdlPv(ptr noundef nonnull %.02) #35
  %.not = icmp eq ptr %.0.val, null
  br i1 %.not, label %._crit_edge, label %.lr.ph, !llvm.loop !912

._crit_edge:                                      ; preds = %_ZNSt8_Rb_treeIN5boost6detail14edge_desc_implINS0_17bidirectional_tagEmEESt4pairIKS4_N3ue212_GLOBAL__N_114edge_join_infoEESt10_Select1stISA_ESt4lessIS4_ESaISA_EE12_M_drop_nodeEPSt13_Rb_tree_nodeISA_E.exit, %1
  ret void
}